; Function Attrs: mustprogress uwtable
define internal void @"_ZNSt17_Function_handlerIFvvEZN3gmx25ModularSimulatorAlgorithm17populateTaskQueueEvE3$_0E9_M_invokeERKSt9_Any_data"(ptr nocapture noundef nonnull readonly align 8 dereferenceable(16) %0) #3 align 2 {
  %.val = load ptr, ptr %0, align 8
  %2 = load ptr, ptr %.val, align 8
  %3 = getelementptr inbounds i8, ptr %.val, i64 8
  %4 = load i32, ptr %3, align 8
  %5 = sext i32 %4 to i64
  %6 = getelementptr inbounds i8, ptr %.val, i64 24
  %7 = load i8, ptr %6, align 8
  %8 = trunc i8 %7 to i1
  tail call void @_ZN3gmx25ModularSimulatorAlgorithm7preStepEldb(ptr noundef nonnull align 8 dereferenceable(448) %2, i64 noundef %5, double poison, i1 noundef zeroext %8)
  ret void
}